
Proyecto2.elf:     file format elf32-avr

Sections:
Idx Name          Size      VMA       LMA       File off  Algn
  0 .data         00000000  00800100  00800100  000007dc  2**0
                  CONTENTS, ALLOC, LOAD, DATA
  1 .text         00000768  00000000  00000000  00000074  2**1
                  CONTENTS, ALLOC, LOAD, READONLY, CODE
  2 .bss          0000001b  00800100  00800100  000007dc  2**0
                  ALLOC
  3 .comment      00000030  00000000  00000000  000007dc  2**0
                  CONTENTS, READONLY
  4 .note.gnu.avr.deviceinfo 00000040  00000000  00000000  0000080c  2**2
                  CONTENTS, READONLY
  5 .debug_aranges 000000a0  00000000  00000000  0000084c  2**0
                  CONTENTS, READONLY, DEBUGGING
  6 .debug_info   00000f16  00000000  00000000  000008ec  2**0
                  CONTENTS, READONLY, DEBUGGING
  7 .debug_abbrev 00000856  00000000  00000000  00001802  2**0
                  CONTENTS, READONLY, DEBUGGING
  8 .debug_line   00000731  00000000  00000000  00002058  2**0
                  CONTENTS, READONLY, DEBUGGING
  9 .debug_frame  000001a8  00000000  00000000  0000278c  2**2
                  CONTENTS, READONLY, DEBUGGING
 10 .debug_str    0000052f  00000000  00000000  00002934  2**0
                  CONTENTS, READONLY, DEBUGGING
 11 .debug_loc    0000051d  00000000  00000000  00002e63  2**0
                  CONTENTS, READONLY, DEBUGGING
 12 .debug_ranges 00000090  00000000  00000000  00003380  2**0
                  CONTENTS, READONLY, DEBUGGING

Disassembly of section .text:

00000000 <__vectors>:
   0:	0c 94 34 00 	jmp	0x68	; 0x68 <__ctors_end>
   4:	0c 94 46 00 	jmp	0x8c	; 0x8c <__bad_interrupt>
   8:	0c 94 46 00 	jmp	0x8c	; 0x8c <__bad_interrupt>
   c:	0c 94 46 00 	jmp	0x8c	; 0x8c <__bad_interrupt>
  10:	0c 94 46 00 	jmp	0x8c	; 0x8c <__bad_interrupt>
  14:	0c 94 ec 02 	jmp	0x5d8	; 0x5d8 <__vector_5>
  18:	0c 94 46 00 	jmp	0x8c	; 0x8c <__bad_interrupt>
  1c:	0c 94 46 00 	jmp	0x8c	; 0x8c <__bad_interrupt>
  20:	0c 94 46 00 	jmp	0x8c	; 0x8c <__bad_interrupt>
  24:	0c 94 46 00 	jmp	0x8c	; 0x8c <__bad_interrupt>
  28:	0c 94 46 00 	jmp	0x8c	; 0x8c <__bad_interrupt>
  2c:	0c 94 46 00 	jmp	0x8c	; 0x8c <__bad_interrupt>
  30:	0c 94 46 00 	jmp	0x8c	; 0x8c <__bad_interrupt>
  34:	0c 94 46 00 	jmp	0x8c	; 0x8c <__bad_interrupt>
  38:	0c 94 46 00 	jmp	0x8c	; 0x8c <__bad_interrupt>
  3c:	0c 94 46 00 	jmp	0x8c	; 0x8c <__bad_interrupt>
  40:	0c 94 46 00 	jmp	0x8c	; 0x8c <__bad_interrupt>
  44:	0c 94 46 00 	jmp	0x8c	; 0x8c <__bad_interrupt>
  48:	0c 94 1f 03 	jmp	0x63e	; 0x63e <__vector_18>
  4c:	0c 94 46 00 	jmp	0x8c	; 0x8c <__bad_interrupt>
  50:	0c 94 46 00 	jmp	0x8c	; 0x8c <__bad_interrupt>
  54:	0c 94 46 00 	jmp	0x8c	; 0x8c <__bad_interrupt>
  58:	0c 94 46 00 	jmp	0x8c	; 0x8c <__bad_interrupt>
  5c:	0c 94 46 00 	jmp	0x8c	; 0x8c <__bad_interrupt>
  60:	0c 94 46 00 	jmp	0x8c	; 0x8c <__bad_interrupt>
  64:	0c 94 46 00 	jmp	0x8c	; 0x8c <__bad_interrupt>

00000068 <__ctors_end>:
  68:	11 24       	eor	r1, r1
  6a:	1f be       	out	0x3f, r1	; 63
  6c:	cf ef       	ldi	r28, 0xFF	; 255
  6e:	d8 e0       	ldi	r29, 0x08	; 8
  70:	de bf       	out	0x3e, r29	; 62
  72:	cd bf       	out	0x3d, r28	; 61

00000074 <__do_clear_bss>:
  74:	21 e0       	ldi	r18, 0x01	; 1
  76:	a0 e0       	ldi	r26, 0x00	; 0
  78:	b1 e0       	ldi	r27, 0x01	; 1
  7a:	01 c0       	rjmp	.+2      	; 0x7e <.do_clear_bss_start>

0000007c <.do_clear_bss_loop>:
  7c:	1d 92       	st	X+, r1

0000007e <.do_clear_bss_start>:
  7e:	ab 31       	cpi	r26, 0x1B	; 27
  80:	b2 07       	cpc	r27, r18
  82:	e1 f7       	brne	.-8      	; 0x7c <.do_clear_bss_loop>
  84:	0e 94 8a 01 	call	0x314	; 0x314 <main>
  88:	0c 94 b2 03 	jmp	0x764	; 0x764 <_exit>

0000008c <__bad_interrupt>:
  8c:	0c 94 00 00 	jmp	0	; 0x0 <__vectors>

00000090 <PWM_init>:
{
	for(uint8_t i = 0; *(texto+i) != '\0'; i++)
	{
		write_char(*(texto+i));
	}
}
  90:	82 ea       	ldi	r24, 0xA2	; 162
  92:	80 93 80 00 	sts	0x0080, r24	; 0x800080 <__TEXT_REGION_LENGTH__+0x7f8080>
  96:	8a e1       	ldi	r24, 0x1A	; 26
  98:	80 93 81 00 	sts	0x0081, r24	; 0x800081 <__TEXT_REGION_LENGTH__+0x7f8081>
  9c:	80 e2       	ldi	r24, 0x20	; 32
  9e:	9e e4       	ldi	r25, 0x4E	; 78
  a0:	90 93 87 00 	sts	0x0087, r25	; 0x800087 <__TEXT_REGION_LENGTH__+0x7f8087>
  a4:	80 93 86 00 	sts	0x0086, r24	; 0x800086 <__TEXT_REGION_LENGTH__+0x7f8086>
  a8:	83 ea       	ldi	r24, 0xA3	; 163
  aa:	80 93 b0 00 	sts	0x00B0, r24	; 0x8000b0 <__TEXT_REGION_LENGTH__+0x7f80b0>
  ae:	85 e0       	ldi	r24, 0x05	; 5
  b0:	80 93 b1 00 	sts	0x00B1, r24	; 0x8000b1 <__TEXT_REGION_LENGTH__+0x7f80b1>
  b4:	08 95       	ret

000000b6 <ADC_init>:
  b6:	80 e4       	ldi	r24, 0x40	; 64
  b8:	80 93 7c 00 	sts	0x007C, r24	; 0x80007c <__TEXT_REGION_LENGTH__+0x7f807c>
  bc:	86 e8       	ldi	r24, 0x86	; 134
  be:	80 93 7a 00 	sts	0x007A, r24	; 0x80007a <__TEXT_REGION_LENGTH__+0x7f807a>
  c2:	08 95       	ret

000000c4 <UART_init>:
  c4:	8a b1       	in	r24, 0x0a	; 10
  c6:	82 60       	ori	r24, 0x02	; 2
  c8:	8a b9       	out	0x0a, r24	; 10
  ca:	8a b1       	in	r24, 0x0a	; 10
  cc:	8e 7f       	andi	r24, 0xFE	; 254
  ce:	8a b9       	out	0x0a, r24	; 10
  d0:	10 92 c0 00 	sts	0x00C0, r1	; 0x8000c0 <__TEXT_REGION_LENGTH__+0x7f80c0>
  d4:	e1 ec       	ldi	r30, 0xC1	; 193
  d6:	f0 e0       	ldi	r31, 0x00	; 0
  d8:	80 81       	ld	r24, Z
  da:	88 69       	ori	r24, 0x98	; 152
  dc:	80 83       	st	Z, r24
  de:	86 e0       	ldi	r24, 0x06	; 6
  e0:	80 93 c2 00 	sts	0x00C2, r24	; 0x8000c2 <__TEXT_REGION_LENGTH__+0x7f80c2>
  e4:	87 e6       	ldi	r24, 0x67	; 103
  e6:	90 e0       	ldi	r25, 0x00	; 0
  e8:	90 93 c5 00 	sts	0x00C5, r25	; 0x8000c5 <__TEXT_REGION_LENGTH__+0x7f80c5>
  ec:	80 93 c4 00 	sts	0x00C4, r24	; 0x8000c4 <__TEXT_REGION_LENGTH__+0x7f80c4>
  f0:	08 95       	ret

000000f2 <setup>:
  f2:	f8 94       	cli
  f4:	8f ef       	ldi	r24, 0xFF	; 255
  f6:	84 b9       	out	0x04, r24	; 4
  f8:	8a b1       	in	r24, 0x0a	; 10
  fa:	88 60       	ori	r24, 0x08	; 8
  fc:	8a b9       	out	0x0a, r24	; 10
  fe:	8b b1       	in	r24, 0x0b	; 11
 100:	84 63       	ori	r24, 0x34	; 52
 102:	8b b9       	out	0x0b, r24	; 11
 104:	8f e0       	ldi	r24, 0x0F	; 15
 106:	87 b9       	out	0x07, r24	; 7
 108:	ed e6       	ldi	r30, 0x6D	; 109
 10a:	f0 e0       	ldi	r31, 0x00	; 0
 10c:	80 81       	ld	r24, Z
 10e:	84 63       	ori	r24, 0x34	; 52
 110:	80 83       	st	Z, r24
 112:	e8 e6       	ldi	r30, 0x68	; 104
 114:	f0 e0       	ldi	r31, 0x00	; 0
 116:	80 81       	ld	r24, Z
 118:	84 60       	ori	r24, 0x04	; 4
 11a:	80 83       	st	Z, r24
 11c:	0e 94 48 00 	call	0x90	; 0x90 <PWM_init>
 120:	0e 94 5b 00 	call	0xb6	; 0xb6 <ADC_init>
 124:	0e 94 62 00 	call	0xc4	; 0xc4 <UART_init>
 128:	78 94       	sei
 12a:	08 95       	ret

0000012c <ADC_read>:
 12c:	ec e7       	ldi	r30, 0x7C	; 124
 12e:	f0 e0       	ldi	r31, 0x00	; 0
 130:	90 81       	ld	r25, Z
 132:	90 7f       	andi	r25, 0xF0	; 240
 134:	8f 70       	andi	r24, 0x0F	; 15
 136:	89 2b       	or	r24, r25
 138:	80 83       	st	Z, r24
 13a:	ea e7       	ldi	r30, 0x7A	; 122
 13c:	f0 e0       	ldi	r31, 0x00	; 0
 13e:	80 81       	ld	r24, Z
 140:	80 64       	ori	r24, 0x40	; 64
 142:	80 83       	st	Z, r24
 144:	80 91 7a 00 	lds	r24, 0x007A	; 0x80007a <__TEXT_REGION_LENGTH__+0x7f807a>
 148:	86 fd       	sbrc	r24, 6
 14a:	fc cf       	rjmp	.-8      	; 0x144 <ADC_read+0x18>
 14c:	80 91 78 00 	lds	r24, 0x0078	; 0x800078 <__TEXT_REGION_LENGTH__+0x7f8078>
 150:	90 91 79 00 	lds	r25, 0x0079	; 0x800079 <__TEXT_REGION_LENGTH__+0x7f8079>
 154:	08 95       	ret

00000156 <mapeo_servo>:
 156:	0f 93       	push	r16
 158:	1f 93       	push	r17
 15a:	cb 01       	movw	r24, r22
 15c:	83 5c       	subi	r24, 0xC3	; 195
 15e:	91 40       	sbci	r25, 0x01	; 1
 160:	8d 36       	cpi	r24, 0x6D	; 109
 162:	91 05       	cpc	r25, r1
 164:	30 f4       	brcc	.+12     	; 0x172 <mapeo_servo+0x1c>
 166:	83 e6       	ldi	r24, 0x63	; 99
 168:	9b e0       	ldi	r25, 0x0B	; 11
 16a:	f9 01       	movw	r30, r18
 16c:	91 83       	std	Z+1, r25	; 0x01
 16e:	80 83       	st	Z, r24
 170:	12 c0       	rjmp	.+36     	; 0x196 <mapeo_servo+0x40>
 172:	62 3c       	cpi	r22, 0xC2	; 194
 174:	f1 e0       	ldi	r31, 0x01	; 1
 176:	7f 07       	cpc	r23, r31
 178:	30 f4       	brcc	.+12     	; 0x186 <mapeo_servo+0x30>
 17a:	8c e9       	ldi	r24, 0x9C	; 156
 17c:	9c e0       	ldi	r25, 0x0C	; 12
 17e:	f9 01       	movw	r30, r18
 180:	91 83       	std	Z+1, r25	; 0x01
 182:	80 83       	st	Z, r24
 184:	08 c0       	rjmp	.+16     	; 0x196 <mapeo_servo+0x40>
 186:	61 33       	cpi	r22, 0x31	; 49
 188:	72 40       	sbci	r23, 0x02	; 2
 18a:	28 f0       	brcs	.+10     	; 0x196 <mapeo_servo+0x40>
 18c:	85 eb       	ldi	r24, 0xB5	; 181
 18e:	99 e0       	ldi	r25, 0x09	; 9
 190:	f9 01       	movw	r30, r18
 192:	91 83       	std	Z+1, r25	; 0x01
 194:	80 83       	st	Z, r24
 196:	ca 01       	movw	r24, r20
 198:	83 5c       	subi	r24, 0xC3	; 195
 19a:	91 40       	sbci	r25, 0x01	; 1
 19c:	8d 36       	cpi	r24, 0x6D	; 109
 19e:	91 05       	cpc	r25, r1
 1a0:	30 f4       	brcc	.+12     	; 0x1ae <mapeo_servo+0x58>
 1a2:	83 ec       	ldi	r24, 0xC3	; 195
 1a4:	9c e0       	ldi	r25, 0x0C	; 12
 1a6:	f8 01       	movw	r30, r16
 1a8:	91 83       	std	Z+1, r25	; 0x01
 1aa:	80 83       	st	Z, r24
 1ac:	12 c0       	rjmp	.+36     	; 0x1d2 <mapeo_servo+0x7c>
 1ae:	42 3c       	cpi	r20, 0xC2	; 194
 1b0:	f1 e0       	ldi	r31, 0x01	; 1
 1b2:	5f 07       	cpc	r21, r31
 1b4:	30 f4       	brcc	.+12     	; 0x1c2 <mapeo_servo+0x6c>
 1b6:	87 ec       	ldi	r24, 0xC7	; 199
 1b8:	9a e0       	ldi	r25, 0x0A	; 10
 1ba:	f8 01       	movw	r30, r16
 1bc:	91 83       	std	Z+1, r25	; 0x01
 1be:	80 83       	st	Z, r24
 1c0:	08 c0       	rjmp	.+16     	; 0x1d2 <mapeo_servo+0x7c>
 1c2:	41 33       	cpi	r20, 0x31	; 49
 1c4:	52 40       	sbci	r21, 0x02	; 2
 1c6:	28 f0       	brcs	.+10     	; 0x1d2 <mapeo_servo+0x7c>
 1c8:	89 e9       	ldi	r24, 0x99	; 153
 1ca:	9e e0       	ldi	r25, 0x0E	; 14
 1cc:	f8 01       	movw	r30, r16
 1ce:	91 83       	std	Z+1, r25	; 0x01
 1d0:	80 83       	st	Z, r24
 1d2:	1f 91       	pop	r17
 1d4:	0f 91       	pop	r16
 1d6:	08 95       	ret

000001d8 <map_servo2>:
 1d8:	9c 01       	movw	r18, r24
 1da:	a8 ec       	ldi	r26, 0xC8	; 200
 1dc:	b0 e0       	ldi	r27, 0x00	; 0
 1de:	0e 94 7d 03 	call	0x6fa	; 0x6fa <__umulhisi3>
 1e2:	2f ef       	ldi	r18, 0xFF	; 255
 1e4:	33 e0       	ldi	r19, 0x03	; 3
 1e6:	40 e0       	ldi	r20, 0x00	; 0
 1e8:	50 e0       	ldi	r21, 0x00	; 0
 1ea:	0e 94 5b 03 	call	0x6b6	; 0x6b6 <__udivmodsi4>
 1ee:	c9 01       	movw	r24, r18
 1f0:	49 96       	adiw	r24, 0x19	; 25
 1f2:	08 95       	ret

000001f4 <writeEEPROM>:
 1f4:	f9 99       	sbic	0x1f, 1	; 31
 1f6:	fe cf       	rjmp	.-4      	; 0x1f4 <writeEEPROM>
 1f8:	92 bd       	out	0x22, r25	; 34
 1fa:	81 bd       	out	0x21, r24	; 33
 1fc:	60 bd       	out	0x20, r22	; 32
 1fe:	8f b3       	in	r24, 0x1f	; 31
 200:	84 60       	ori	r24, 0x04	; 4
 202:	8f bb       	out	0x1f, r24	; 31
 204:	8f b3       	in	r24, 0x1f	; 31
 206:	82 60       	ori	r24, 0x02	; 2
 208:	8f bb       	out	0x1f, r24	; 31
 20a:	08 95       	ret

0000020c <read_EEPROM>:
 20c:	f9 99       	sbic	0x1f, 1	; 31
 20e:	fe cf       	rjmp	.-4      	; 0x20c <read_EEPROM>
 210:	92 bd       	out	0x22, r25	; 34
 212:	81 bd       	out	0x21, r24	; 33
 214:	8f b3       	in	r24, 0x1f	; 31
 216:	81 60       	ori	r24, 0x01	; 1
 218:	8f bb       	out	0x1f, r24	; 31
 21a:	80 b5       	in	r24, 0x20	; 32
 21c:	08 95       	ret

0000021e <save_>:
 21e:	cf 93       	push	r28
 220:	df 93       	push	r29
 222:	d4 2f       	mov	r29, r20
 224:	26 2f       	mov	r18, r22
 226:	30 e0       	ldi	r19, 0x00	; 0
 228:	22 0f       	add	r18, r18
 22a:	33 1f       	adc	r19, r19
 22c:	22 0f       	add	r18, r18
 22e:	33 1f       	adc	r19, r19
 230:	28 0f       	add	r18, r24
 232:	31 1d       	adc	r19, r1
 234:	c2 2f       	mov	r28, r18
 236:	cc 0f       	add	r28, r28
 238:	65 2f       	mov	r22, r21
 23a:	8c 2f       	mov	r24, r28
 23c:	90 e0       	ldi	r25, 0x00	; 0
 23e:	0e 94 fa 00 	call	0x1f4	; 0x1f4 <writeEEPROM>
 242:	81 e0       	ldi	r24, 0x01	; 1
 244:	8c 0f       	add	r24, r28
 246:	6d 2f       	mov	r22, r29
 248:	90 e0       	ldi	r25, 0x00	; 0
 24a:	0e 94 fa 00 	call	0x1f4	; 0x1f4 <writeEEPROM>
 24e:	df 91       	pop	r29
 250:	cf 91       	pop	r28
 252:	08 95       	ret

00000254 <load_>:
 254:	70 e0       	ldi	r23, 0x00	; 0
 256:	66 0f       	add	r22, r22
 258:	77 1f       	adc	r23, r23
 25a:	66 0f       	add	r22, r22
 25c:	77 1f       	adc	r23, r23
 25e:	68 0f       	add	r22, r24
 260:	71 1d       	adc	r23, r1
 262:	66 0f       	add	r22, r22
 264:	86 2f       	mov	r24, r22
 266:	84 0f       	add	r24, r20
 268:	90 e0       	ldi	r25, 0x00	; 0
 26a:	0e 94 06 01 	call	0x20c	; 0x20c <read_EEPROM>
 26e:	08 95       	ret

00000270 <led_on>:
 270:	81 30       	cpi	r24, 0x01	; 1
 272:	39 f4       	brne	.+14     	; 0x282 <led_on+0x12>
 274:	85 b1       	in	r24, 0x05	; 5
 276:	80 62       	ori	r24, 0x20	; 32
 278:	85 b9       	out	0x05, r24	; 5
 27a:	85 b1       	in	r24, 0x05	; 5
 27c:	8f 7e       	andi	r24, 0xEF	; 239
 27e:	85 b9       	out	0x05, r24	; 5
 280:	0f c0       	rjmp	.+30     	; 0x2a0 <led_on+0x30>
 282:	82 30       	cpi	r24, 0x02	; 2
 284:	39 f4       	brne	.+14     	; 0x294 <led_on+0x24>
 286:	85 b1       	in	r24, 0x05	; 5
 288:	80 61       	ori	r24, 0x10	; 16
 28a:	85 b9       	out	0x05, r24	; 5
 28c:	85 b1       	in	r24, 0x05	; 5
 28e:	8f 7d       	andi	r24, 0xDF	; 223
 290:	85 b9       	out	0x05, r24	; 5
 292:	06 c0       	rjmp	.+12     	; 0x2a0 <led_on+0x30>
 294:	85 b1       	in	r24, 0x05	; 5
 296:	8f 7d       	andi	r24, 0xDF	; 223
 298:	85 b9       	out	0x05, r24	; 5
 29a:	85 b1       	in	r24, 0x05	; 5
 29c:	8f 7e       	andi	r24, 0xEF	; 239
 29e:	85 b9       	out	0x05, r24	; 5
 2a0:	61 30       	cpi	r22, 0x01	; 1
 2a2:	69 f4       	brne	.+26     	; 0x2be <led_on+0x4e>
 2a4:	88 b1       	in	r24, 0x08	; 8
 2a6:	82 60       	ori	r24, 0x02	; 2
 2a8:	88 b9       	out	0x08, r24	; 8
 2aa:	88 b1       	in	r24, 0x08	; 8
 2ac:	8e 7f       	andi	r24, 0xFE	; 254
 2ae:	88 b9       	out	0x08, r24	; 8
 2b0:	88 b1       	in	r24, 0x08	; 8
 2b2:	8b 7f       	andi	r24, 0xFB	; 251
 2b4:	88 b9       	out	0x08, r24	; 8
 2b6:	88 b1       	in	r24, 0x08	; 8
 2b8:	87 7f       	andi	r24, 0xF7	; 247
 2ba:	88 b9       	out	0x08, r24	; 8
 2bc:	08 95       	ret
 2be:	62 30       	cpi	r22, 0x02	; 2
 2c0:	69 f4       	brne	.+26     	; 0x2dc <led_on+0x6c>
 2c2:	88 b1       	in	r24, 0x08	; 8
 2c4:	84 60       	ori	r24, 0x04	; 4
 2c6:	88 b9       	out	0x08, r24	; 8
 2c8:	88 b1       	in	r24, 0x08	; 8
 2ca:	8e 7f       	andi	r24, 0xFE	; 254
 2cc:	88 b9       	out	0x08, r24	; 8
 2ce:	88 b1       	in	r24, 0x08	; 8
 2d0:	8d 7f       	andi	r24, 0xFD	; 253
 2d2:	88 b9       	out	0x08, r24	; 8
 2d4:	88 b1       	in	r24, 0x08	; 8
 2d6:	87 7f       	andi	r24, 0xF7	; 247
 2d8:	88 b9       	out	0x08, r24	; 8
 2da:	08 95       	ret
 2dc:	63 30       	cpi	r22, 0x03	; 3
 2de:	69 f4       	brne	.+26     	; 0x2fa <led_on+0x8a>
 2e0:	88 b1       	in	r24, 0x08	; 8
 2e2:	88 60       	ori	r24, 0x08	; 8
 2e4:	88 b9       	out	0x08, r24	; 8
 2e6:	88 b1       	in	r24, 0x08	; 8
 2e8:	8e 7f       	andi	r24, 0xFE	; 254
 2ea:	88 b9       	out	0x08, r24	; 8
 2ec:	88 b1       	in	r24, 0x08	; 8
 2ee:	8b 7f       	andi	r24, 0xFB	; 251
 2f0:	88 b9       	out	0x08, r24	; 8
 2f2:	88 b1       	in	r24, 0x08	; 8
 2f4:	8d 7f       	andi	r24, 0xFD	; 253
 2f6:	88 b9       	out	0x08, r24	; 8
 2f8:	08 95       	ret
 2fa:	88 b1       	in	r24, 0x08	; 8
 2fc:	81 60       	ori	r24, 0x01	; 1
 2fe:	88 b9       	out	0x08, r24	; 8
 300:	88 b1       	in	r24, 0x08	; 8
 302:	8d 7f       	andi	r24, 0xFD	; 253
 304:	88 b9       	out	0x08, r24	; 8
 306:	88 b1       	in	r24, 0x08	; 8
 308:	8b 7f       	andi	r24, 0xFB	; 251
 30a:	88 b9       	out	0x08, r24	; 8
 30c:	88 b1       	in	r24, 0x08	; 8
 30e:	87 7f       	andi	r24, 0xF7	; 247
 310:	88 b9       	out	0x08, r24	; 8
 312:	08 95       	ret

00000314 <main>:
 314:	0e 94 79 00 	call	0xf2	; 0xf2 <setup>
 318:	60 91 03 01 	lds	r22, 0x0103	; 0x800103 <place>
 31c:	80 91 04 01 	lds	r24, 0x0104	; 0x800104 <modo>
 320:	0e 94 38 01 	call	0x270	; 0x270 <led_on>
 324:	80 91 04 01 	lds	r24, 0x0104	; 0x800104 <modo>
 328:	81 11       	cpse	r24, r1
 32a:	84 c0       	rjmp	.+264    	; 0x434 <__EEPROM_REGION_LENGTH__+0x34>
 32c:	86 e0       	ldi	r24, 0x06	; 6
 32e:	0e 94 96 00 	call	0x12c	; 0x12c <ADC_read>
 332:	90 93 12 01 	sts	0x0112, r25	; 0x800112 <ADC_servo1+0x1>
 336:	80 93 11 01 	sts	0x0111, r24	; 0x800111 <ADC_servo1>
 33a:	87 e0       	ldi	r24, 0x07	; 7
 33c:	0e 94 96 00 	call	0x12c	; 0x12c <ADC_read>
 340:	90 93 10 01 	sts	0x0110, r25	; 0x800110 <ADC_servo2+0x1>
 344:	80 93 0f 01 	sts	0x010F, r24	; 0x80010f <ADC_servo2>
 348:	60 91 11 01 	lds	r22, 0x0111	; 0x800111 <ADC_servo1>
 34c:	70 91 12 01 	lds	r23, 0x0112	; 0x800112 <ADC_servo1+0x1>
 350:	07 e0       	ldi	r16, 0x07	; 7
 352:	11 e0       	ldi	r17, 0x01	; 1
 354:	29 e0       	ldi	r18, 0x09	; 9
 356:	31 e0       	ldi	r19, 0x01	; 1
 358:	ac 01       	movw	r20, r24
 35a:	81 e0       	ldi	r24, 0x01	; 1
 35c:	0e 94 ab 00 	call	0x156	; 0x156 <mapeo_servo>
 360:	40 91 0f 01 	lds	r20, 0x010F	; 0x80010f <ADC_servo2>
 364:	50 91 10 01 	lds	r21, 0x0110	; 0x800110 <ADC_servo2+0x1>
 368:	60 91 11 01 	lds	r22, 0x0111	; 0x800111 <ADC_servo1>
 36c:	70 91 12 01 	lds	r23, 0x0112	; 0x800112 <ADC_servo1+0x1>
 370:	29 e0       	ldi	r18, 0x09	; 9
 372:	31 e0       	ldi	r19, 0x01	; 1
 374:	80 e0       	ldi	r24, 0x00	; 0
 376:	0e 94 ab 00 	call	0x156	; 0x156 <mapeo_servo>
 37a:	80 91 09 01 	lds	r24, 0x0109	; 0x800109 <PWM_1>
 37e:	90 91 0a 01 	lds	r25, 0x010A	; 0x80010a <PWM_1+0x1>
 382:	90 93 89 00 	sts	0x0089, r25	; 0x800089 <__TEXT_REGION_LENGTH__+0x7f8089>
 386:	80 93 88 00 	sts	0x0088, r24	; 0x800088 <__TEXT_REGION_LENGTH__+0x7f8088>
 38a:	80 91 07 01 	lds	r24, 0x0107	; 0x800107 <PWM_2>
 38e:	90 91 08 01 	lds	r25, 0x0108	; 0x800108 <PWM_2+0x1>
 392:	90 93 8b 00 	sts	0x008B, r25	; 0x80008b <__TEXT_REGION_LENGTH__+0x7f808b>
 396:	80 93 8a 00 	sts	0x008A, r24	; 0x80008a <__TEXT_REGION_LENGTH__+0x7f808a>
 39a:	84 e0       	ldi	r24, 0x04	; 4
 39c:	0e 94 96 00 	call	0x12c	; 0x12c <ADC_read>
 3a0:	90 93 0e 01 	sts	0x010E, r25	; 0x80010e <ADC_servo3+0x1>
 3a4:	80 93 0d 01 	sts	0x010D, r24	; 0x80010d <ADC_servo3>
 3a8:	0e 94 ec 00 	call	0x1d8	; 0x1d8 <map_servo2>
 3ac:	80 93 06 01 	sts	0x0106, r24	; 0x800106 <PWM_3>
 3b0:	80 93 b3 00 	sts	0x00B3, r24	; 0x8000b3 <__TEXT_REGION_LENGTH__+0x7f80b3>
 3b4:	85 e0       	ldi	r24, 0x05	; 5
 3b6:	0e 94 96 00 	call	0x12c	; 0x12c <ADC_read>
 3ba:	90 93 0c 01 	sts	0x010C, r25	; 0x80010c <ADC_servo4+0x1>
 3be:	80 93 0b 01 	sts	0x010B, r24	; 0x80010b <ADC_servo4>
 3c2:	0e 94 ec 00 	call	0x1d8	; 0x1d8 <map_servo2>
 3c6:	80 93 05 01 	sts	0x0105, r24	; 0x800105 <PWM_4>
 3ca:	80 93 b4 00 	sts	0x00B4, r24	; 0x8000b4 <__TEXT_REGION_LENGTH__+0x7f80b4>
 3ce:	80 91 02 01 	lds	r24, 0x0102	; 0x800102 <habilitar>
 3d2:	81 30       	cpi	r24, 0x01	; 1
 3d4:	29 f5       	brne	.+74     	; 0x420 <__EEPROM_REGION_LENGTH__+0x20>
 3d6:	40 91 11 01 	lds	r20, 0x0111	; 0x800111 <ADC_servo1>
 3da:	50 91 12 01 	lds	r21, 0x0112	; 0x800112 <ADC_servo1+0x1>
 3de:	60 91 03 01 	lds	r22, 0x0103	; 0x800103 <place>
 3e2:	0e 94 0f 01 	call	0x21e	; 0x21e <save_>
 3e6:	40 91 0f 01 	lds	r20, 0x010F	; 0x80010f <ADC_servo2>
 3ea:	50 91 10 01 	lds	r21, 0x0110	; 0x800110 <ADC_servo2+0x1>
 3ee:	60 91 03 01 	lds	r22, 0x0103	; 0x800103 <place>
 3f2:	82 e0       	ldi	r24, 0x02	; 2
 3f4:	0e 94 0f 01 	call	0x21e	; 0x21e <save_>
 3f8:	40 91 0d 01 	lds	r20, 0x010D	; 0x80010d <ADC_servo3>
 3fc:	50 91 0e 01 	lds	r21, 0x010E	; 0x80010e <ADC_servo3+0x1>
 400:	60 91 03 01 	lds	r22, 0x0103	; 0x800103 <place>
 404:	83 e0       	ldi	r24, 0x03	; 3
 406:	0e 94 0f 01 	call	0x21e	; 0x21e <save_>
 40a:	40 91 0b 01 	lds	r20, 0x010B	; 0x80010b <ADC_servo4>
 40e:	50 91 0c 01 	lds	r21, 0x010C	; 0x80010c <ADC_servo4+0x1>
 412:	60 91 03 01 	lds	r22, 0x0103	; 0x800103 <place>
 416:	84 e0       	ldi	r24, 0x04	; 4
 418:	0e 94 0f 01 	call	0x21e	; 0x21e <save_>
 41c:	10 92 02 01 	sts	0x0102, r1	; 0x800102 <habilitar>
 420:	2f ef       	ldi	r18, 0xFF	; 255
 422:	39 ef       	ldi	r19, 0xF9	; 249
 424:	80 e0       	ldi	r24, 0x00	; 0
 426:	21 50       	subi	r18, 0x01	; 1
 428:	30 40       	sbci	r19, 0x00	; 0
 42a:	80 40       	sbci	r24, 0x00	; 0
 42c:	e1 f7       	brne	.-8      	; 0x426 <__EEPROM_REGION_LENGTH__+0x26>
 42e:	00 c0       	rjmp	.+0      	; 0x430 <__EEPROM_REGION_LENGTH__+0x30>
 430:	00 00       	nop
 432:	72 cf       	rjmp	.-284    	; 0x318 <main+0x4>
 434:	81 30       	cpi	r24, 0x01	; 1
 436:	09 f0       	breq	.+2      	; 0x43a <__EEPROM_REGION_LENGTH__+0x3a>
 438:	94 c0       	rjmp	.+296    	; 0x562 <__EEPROM_REGION_LENGTH__+0x162>
 43a:	40 e0       	ldi	r20, 0x00	; 0
 43c:	60 91 03 01 	lds	r22, 0x0103	; 0x800103 <place>
 440:	0e 94 2a 01 	call	0x254	; 0x254 <load_>
 444:	c8 2f       	mov	r28, r24
 446:	d0 e0       	ldi	r29, 0x00	; 0
 448:	dc 2f       	mov	r29, r28
 44a:	cc 27       	eor	r28, r28
 44c:	41 e0       	ldi	r20, 0x01	; 1
 44e:	60 91 03 01 	lds	r22, 0x0103	; 0x800103 <place>
 452:	81 e0       	ldi	r24, 0x01	; 1
 454:	0e 94 2a 01 	call	0x254	; 0x254 <load_>
 458:	c8 2b       	or	r28, r24
 45a:	d0 93 12 01 	sts	0x0112, r29	; 0x800112 <ADC_servo1+0x1>
 45e:	c0 93 11 01 	sts	0x0111, r28	; 0x800111 <ADC_servo1>
 462:	40 e0       	ldi	r20, 0x00	; 0
 464:	60 91 03 01 	lds	r22, 0x0103	; 0x800103 <place>
 468:	82 e0       	ldi	r24, 0x02	; 2
 46a:	0e 94 2a 01 	call	0x254	; 0x254 <load_>
 46e:	48 2f       	mov	r20, r24
 470:	50 e0       	ldi	r21, 0x00	; 0
 472:	d4 2f       	mov	r29, r20
 474:	cc 27       	eor	r28, r28
 476:	41 e0       	ldi	r20, 0x01	; 1
 478:	60 91 03 01 	lds	r22, 0x0103	; 0x800103 <place>
 47c:	82 e0       	ldi	r24, 0x02	; 2
 47e:	0e 94 2a 01 	call	0x254	; 0x254 <load_>
 482:	ae 01       	movw	r20, r28
 484:	48 2b       	or	r20, r24
 486:	50 93 10 01 	sts	0x0110, r21	; 0x800110 <ADC_servo2+0x1>
 48a:	40 93 0f 01 	sts	0x010F, r20	; 0x80010f <ADC_servo2>
 48e:	60 91 11 01 	lds	r22, 0x0111	; 0x800111 <ADC_servo1>
 492:	70 91 12 01 	lds	r23, 0x0112	; 0x800112 <ADC_servo1+0x1>
 496:	07 e0       	ldi	r16, 0x07	; 7
 498:	11 e0       	ldi	r17, 0x01	; 1
 49a:	29 e0       	ldi	r18, 0x09	; 9
 49c:	31 e0       	ldi	r19, 0x01	; 1
 49e:	81 e0       	ldi	r24, 0x01	; 1
 4a0:	0e 94 ab 00 	call	0x156	; 0x156 <mapeo_servo>
 4a4:	40 91 0f 01 	lds	r20, 0x010F	; 0x80010f <ADC_servo2>
 4a8:	50 91 10 01 	lds	r21, 0x0110	; 0x800110 <ADC_servo2+0x1>
 4ac:	60 91 11 01 	lds	r22, 0x0111	; 0x800111 <ADC_servo1>
 4b0:	70 91 12 01 	lds	r23, 0x0112	; 0x800112 <ADC_servo1+0x1>
 4b4:	29 e0       	ldi	r18, 0x09	; 9
 4b6:	31 e0       	ldi	r19, 0x01	; 1
 4b8:	80 e0       	ldi	r24, 0x00	; 0
 4ba:	0e 94 ab 00 	call	0x156	; 0x156 <mapeo_servo>
 4be:	80 91 09 01 	lds	r24, 0x0109	; 0x800109 <PWM_1>
 4c2:	90 91 0a 01 	lds	r25, 0x010A	; 0x80010a <PWM_1+0x1>
 4c6:	90 93 89 00 	sts	0x0089, r25	; 0x800089 <__TEXT_REGION_LENGTH__+0x7f8089>
 4ca:	80 93 88 00 	sts	0x0088, r24	; 0x800088 <__TEXT_REGION_LENGTH__+0x7f8088>
 4ce:	80 91 07 01 	lds	r24, 0x0107	; 0x800107 <PWM_2>
 4d2:	90 91 08 01 	lds	r25, 0x0108	; 0x800108 <PWM_2+0x1>
 4d6:	90 93 8b 00 	sts	0x008B, r25	; 0x80008b <__TEXT_REGION_LENGTH__+0x7f808b>
 4da:	80 93 8a 00 	sts	0x008A, r24	; 0x80008a <__TEXT_REGION_LENGTH__+0x7f808a>
 4de:	40 e0       	ldi	r20, 0x00	; 0
 4e0:	60 91 03 01 	lds	r22, 0x0103	; 0x800103 <place>
 4e4:	83 e0       	ldi	r24, 0x03	; 3
 4e6:	0e 94 2a 01 	call	0x254	; 0x254 <load_>
 4ea:	90 e0       	ldi	r25, 0x00	; 0
 4ec:	d8 2f       	mov	r29, r24
 4ee:	cc 27       	eor	r28, r28
 4f0:	41 e0       	ldi	r20, 0x01	; 1
 4f2:	60 91 03 01 	lds	r22, 0x0103	; 0x800103 <place>
 4f6:	83 e0       	ldi	r24, 0x03	; 3
 4f8:	0e 94 2a 01 	call	0x254	; 0x254 <load_>
 4fc:	9e 01       	movw	r18, r28
 4fe:	28 2b       	or	r18, r24
 500:	c9 01       	movw	r24, r18
 502:	90 93 0e 01 	sts	0x010E, r25	; 0x80010e <ADC_servo3+0x1>
 506:	80 93 0d 01 	sts	0x010D, r24	; 0x80010d <ADC_servo3>
 50a:	0e 94 ec 00 	call	0x1d8	; 0x1d8 <map_servo2>
 50e:	80 93 06 01 	sts	0x0106, r24	; 0x800106 <PWM_3>
 512:	80 93 b3 00 	sts	0x00B3, r24	; 0x8000b3 <__TEXT_REGION_LENGTH__+0x7f80b3>
 516:	40 e0       	ldi	r20, 0x00	; 0
 518:	60 91 03 01 	lds	r22, 0x0103	; 0x800103 <place>
 51c:	84 e0       	ldi	r24, 0x04	; 4
 51e:	0e 94 2a 01 	call	0x254	; 0x254 <load_>
 522:	90 e0       	ldi	r25, 0x00	; 0
 524:	d8 2f       	mov	r29, r24
 526:	cc 27       	eor	r28, r28
 528:	41 e0       	ldi	r20, 0x01	; 1
 52a:	60 91 03 01 	lds	r22, 0x0103	; 0x800103 <place>
 52e:	84 e0       	ldi	r24, 0x04	; 4
 530:	0e 94 2a 01 	call	0x254	; 0x254 <load_>
 534:	9e 01       	movw	r18, r28
 536:	28 2b       	or	r18, r24
 538:	c9 01       	movw	r24, r18
 53a:	90 93 0c 01 	sts	0x010C, r25	; 0x80010c <ADC_servo4+0x1>
 53e:	80 93 0b 01 	sts	0x010B, r24	; 0x80010b <ADC_servo4>
 542:	0e 94 ec 00 	call	0x1d8	; 0x1d8 <map_servo2>
 546:	80 93 05 01 	sts	0x0105, r24	; 0x800105 <PWM_4>
 54a:	80 93 b4 00 	sts	0x00B4, r24	; 0x8000b4 <__TEXT_REGION_LENGTH__+0x7f80b4>
 54e:	3f ef       	ldi	r19, 0xFF	; 255
 550:	89 ef       	ldi	r24, 0xF9	; 249
 552:	90 e0       	ldi	r25, 0x00	; 0
 554:	31 50       	subi	r19, 0x01	; 1
 556:	80 40       	sbci	r24, 0x00	; 0
 558:	90 40       	sbci	r25, 0x00	; 0
 55a:	e1 f7       	brne	.-8      	; 0x554 <__EEPROM_REGION_LENGTH__+0x154>
 55c:	00 c0       	rjmp	.+0      	; 0x55e <__EEPROM_REGION_LENGTH__+0x15e>
 55e:	00 00       	nop
 560:	db ce       	rjmp	.-586    	; 0x318 <main+0x4>
 562:	82 30       	cpi	r24, 0x02	; 2
 564:	09 f0       	breq	.+2      	; 0x568 <__EEPROM_REGION_LENGTH__+0x168>
 566:	d8 ce       	rjmp	.-592    	; 0x318 <main+0x4>
 568:	80 91 00 01 	lds	r24, 0x0100	; 0x800100 <__DATA_REGION_ORIGIN__>
 56c:	90 91 01 01 	lds	r25, 0x0101	; 0x800101 <__DATA_REGION_ORIGIN__+0x1>
 570:	90 93 0c 01 	sts	0x010C, r25	; 0x80010c <ADC_servo4+0x1>
 574:	80 93 0b 01 	sts	0x010B, r24	; 0x80010b <ADC_servo4>
 578:	40 91 0f 01 	lds	r20, 0x010F	; 0x80010f <ADC_servo2>
 57c:	50 91 10 01 	lds	r21, 0x0110	; 0x800110 <ADC_servo2+0x1>
 580:	60 91 11 01 	lds	r22, 0x0111	; 0x800111 <ADC_servo1>
 584:	70 91 12 01 	lds	r23, 0x0112	; 0x800112 <ADC_servo1+0x1>
 588:	07 e0       	ldi	r16, 0x07	; 7
 58a:	11 e0       	ldi	r17, 0x01	; 1
 58c:	29 e0       	ldi	r18, 0x09	; 9
 58e:	31 e0       	ldi	r19, 0x01	; 1
 590:	81 e0       	ldi	r24, 0x01	; 1
 592:	0e 94 ab 00 	call	0x156	; 0x156 <mapeo_servo>
 596:	40 91 0f 01 	lds	r20, 0x010F	; 0x80010f <ADC_servo2>
 59a:	50 91 10 01 	lds	r21, 0x0110	; 0x800110 <ADC_servo2+0x1>
 59e:	60 91 11 01 	lds	r22, 0x0111	; 0x800111 <ADC_servo1>
 5a2:	70 91 12 01 	lds	r23, 0x0112	; 0x800112 <ADC_servo1+0x1>
 5a6:	29 e0       	ldi	r18, 0x09	; 9
 5a8:	31 e0       	ldi	r19, 0x01	; 1
 5aa:	80 e0       	ldi	r24, 0x00	; 0
 5ac:	0e 94 ab 00 	call	0x156	; 0x156 <mapeo_servo>
 5b0:	80 91 09 01 	lds	r24, 0x0109	; 0x800109 <PWM_1>
 5b4:	90 91 0a 01 	lds	r25, 0x010A	; 0x80010a <PWM_1+0x1>
 5b8:	90 93 89 00 	sts	0x0089, r25	; 0x800089 <__TEXT_REGION_LENGTH__+0x7f8089>
 5bc:	80 93 88 00 	sts	0x0088, r24	; 0x800088 <__TEXT_REGION_LENGTH__+0x7f8088>
 5c0:	80 91 07 01 	lds	r24, 0x0107	; 0x800107 <PWM_2>
 5c4:	90 91 08 01 	lds	r25, 0x0108	; 0x800108 <PWM_2+0x1>
 5c8:	90 93 8b 00 	sts	0x008B, r25	; 0x80008b <__TEXT_REGION_LENGTH__+0x7f808b>
 5cc:	80 93 8a 00 	sts	0x008A, r24	; 0x80008a <__TEXT_REGION_LENGTH__+0x7f808a>
 5d0:	a3 ce       	rjmp	.-698    	; 0x318 <main+0x4>

000005d2 <write_char>:
 5d2:	80 93 c6 00 	sts	0x00C6, r24	; 0x8000c6 <__TEXT_REGION_LENGTH__+0x7f80c6>
 5d6:	08 95       	ret

000005d8 <__vector_5>:

// Interrupt routines
ISR(PCINT2_vect)
{
 5d8:	1f 92       	push	r1
 5da:	0f 92       	push	r0
 5dc:	0f b6       	in	r0, 0x3f	; 63
 5de:	0f 92       	push	r0
 5e0:	11 24       	eor	r1, r1
 5e2:	8f 93       	push	r24
 5e4:	9f 93       	push	r25
	cli();
 5e6:	f8 94       	cli
	#else
		//round up by default
		__ticks_dc = (uint32_t)(ceil(fabs(__tmp)));
	#endif

	__builtin_avr_delay_cycles(__ticks_dc);
 5e8:	8f e1       	ldi	r24, 0x1F	; 31
 5ea:	9e e4       	ldi	r25, 0x4E	; 78
 5ec:	01 97       	sbiw	r24, 0x01	; 1
 5ee:	f1 f7       	brne	.-4      	; 0x5ec <__vector_5+0x14>
 5f0:	00 c0       	rjmp	.+0      	; 0x5f2 <__vector_5+0x1a>
 5f2:	00 00       	nop
	
	_delay_ms(5);
	// Si el pin está encendido en el pin 2 incrementa
	if (!(PIND & (1 << PORTD2)))
 5f4:	4a 99       	sbic	0x09, 2	; 9
 5f6:	0a c0       	rjmp	.+20     	; 0x60c <__vector_5+0x34>
	{
		modo++;
 5f8:	80 91 04 01 	lds	r24, 0x0104	; 0x800104 <modo>
 5fc:	8f 5f       	subi	r24, 0xFF	; 255
 5fe:	80 93 04 01 	sts	0x0104, r24	; 0x800104 <modo>
		if (modo == 3)
 602:	83 30       	cpi	r24, 0x03	; 3
 604:	a1 f4       	brne	.+40     	; 0x62e <__vector_5+0x56>
		{
			modo = 0;
 606:	10 92 04 01 	sts	0x0104, r1	; 0x800104 <modo>
 60a:	11 c0       	rjmp	.+34     	; 0x62e <__vector_5+0x56>
		}
	}
	
	// Si el pin está encendido en el pin 4 incrementa
	else if (!(PIND & (1 << PORTD4)))
 60c:	4c 99       	sbic	0x09, 4	; 9
 60e:	0a c0       	rjmp	.+20     	; 0x624 <__vector_5+0x4c>
	{
		place++;
 610:	80 91 03 01 	lds	r24, 0x0103	; 0x800103 <place>
 614:	8f 5f       	subi	r24, 0xFF	; 255
 616:	80 93 03 01 	sts	0x0103, r24	; 0x800103 <place>
		if (place == 4)
 61a:	84 30       	cpi	r24, 0x04	; 4
 61c:	41 f4       	brne	.+16     	; 0x62e <__vector_5+0x56>
		{
			place = 0;
 61e:	10 92 03 01 	sts	0x0103, r1	; 0x800103 <place>
 622:	05 c0       	rjmp	.+10     	; 0x62e <__vector_5+0x56>
		}
	}
	
	// Si el pin está encendido en el pin 5 decrementa
	else if (!(PIND & (1 << PORTD5)))
 624:	4d 99       	sbic	0x09, 5	; 9
 626:	03 c0       	rjmp	.+6      	; 0x62e <__vector_5+0x56>
	{
		habilitar = 1;
 628:	81 e0       	ldi	r24, 0x01	; 1
 62a:	80 93 02 01 	sts	0x0102, r24	; 0x800102 <habilitar>
	}
	sei();
 62e:	78 94       	sei
}
 630:	9f 91       	pop	r25
 632:	8f 91       	pop	r24
 634:	0f 90       	pop	r0
 636:	0f be       	out	0x3f, r0	; 63
 638:	0f 90       	pop	r0
 63a:	1f 90       	pop	r1
 63c:	18 95       	reti

0000063e <__vector_18>:

ISR(USART_RX_vect)
{
 63e:	1f 92       	push	r1
 640:	0f 92       	push	r0
 642:	0f b6       	in	r0, 0x3f	; 63
 644:	0f 92       	push	r0
 646:	11 24       	eor	r1, r1
 648:	2f 93       	push	r18
 64a:	3f 93       	push	r19
 64c:	4f 93       	push	r20
 64e:	5f 93       	push	r21
 650:	6f 93       	push	r22
 652:	7f 93       	push	r23
 654:	8f 93       	push	r24
 656:	9f 93       	push	r25
 658:	af 93       	push	r26
 65a:	bf 93       	push	r27
 65c:	ef 93       	push	r30
 65e:	ff 93       	push	r31
	cli();
 660:	f8 94       	cli
	
	comando = UDR0;
 662:	80 91 c6 00 	lds	r24, 0x00C6	; 0x8000c6 <__TEXT_REGION_LENGTH__+0x7f80c6>
 666:	80 93 1a 01 	sts	0x011A, r24	; 0x80011a <comando>
	
	if (comando == '\n')  // Usamos salto de línea como terminador
 66a:	8a 30       	cpi	r24, 0x0A	; 10
 66c:	71 f4       	brne	.+28     	; 0x68a <__vector_18+0x4c>
	{
		buffer[index] = '\0'; // cerramos el string
 66e:	e0 91 19 01 	lds	r30, 0x0119	; 0x800119 <index>
 672:	f0 e0       	ldi	r31, 0x00	; 0
 674:	ec 5e       	subi	r30, 0xEC	; 236
 676:	fe 4f       	sbci	r31, 0xFE	; 254
 678:	10 82       	st	Z, r1
		doble_comando = atoi((char*)buffer); // convertimos a número
 67a:	84 e1       	ldi	r24, 0x14	; 20
 67c:	91 e0       	ldi	r25, 0x01	; 1
 67e:	0e 94 8c 03 	call	0x718	; 0x718 <atoi>
 682:	80 93 13 01 	sts	0x0113, r24	; 0x800113 <doble_comando>
		index = 0; // reseteamos para el próximo número
 686:	10 92 19 01 	sts	0x0119, r1	; 0x800119 <index>
	}

	write_char(comando);
 68a:	80 91 1a 01 	lds	r24, 0x011A	; 0x80011a <comando>
 68e:	0e 94 e9 02 	call	0x5d2	; 0x5d2 <write_char>
	
	sei();
 692:	78 94       	sei
 694:	ff 91       	pop	r31
 696:	ef 91       	pop	r30
 698:	bf 91       	pop	r27
 69a:	af 91       	pop	r26
 69c:	9f 91       	pop	r25
 69e:	8f 91       	pop	r24
 6a0:	7f 91       	pop	r23
 6a2:	6f 91       	pop	r22
 6a4:	5f 91       	pop	r21
 6a6:	4f 91       	pop	r20
 6a8:	3f 91       	pop	r19
 6aa:	2f 91       	pop	r18
 6ac:	0f 90       	pop	r0
 6ae:	0f be       	out	0x3f, r0	; 63
 6b0:	0f 90       	pop	r0
 6b2:	1f 90       	pop	r1
 6b4:	18 95       	reti

000006b6 <__udivmodsi4>:
 6b6:	a1 e2       	ldi	r26, 0x21	; 33
 6b8:	1a 2e       	mov	r1, r26
 6ba:	aa 1b       	sub	r26, r26
 6bc:	bb 1b       	sub	r27, r27
 6be:	fd 01       	movw	r30, r26
 6c0:	0d c0       	rjmp	.+26     	; 0x6dc <__udivmodsi4_ep>

000006c2 <__udivmodsi4_loop>:
 6c2:	aa 1f       	adc	r26, r26
 6c4:	bb 1f       	adc	r27, r27
 6c6:	ee 1f       	adc	r30, r30
 6c8:	ff 1f       	adc	r31, r31
 6ca:	a2 17       	cp	r26, r18
 6cc:	b3 07       	cpc	r27, r19
 6ce:	e4 07       	cpc	r30, r20
 6d0:	f5 07       	cpc	r31, r21
 6d2:	20 f0       	brcs	.+8      	; 0x6dc <__udivmodsi4_ep>
 6d4:	a2 1b       	sub	r26, r18
 6d6:	b3 0b       	sbc	r27, r19
 6d8:	e4 0b       	sbc	r30, r20
 6da:	f5 0b       	sbc	r31, r21

000006dc <__udivmodsi4_ep>:
 6dc:	66 1f       	adc	r22, r22
 6de:	77 1f       	adc	r23, r23
 6e0:	88 1f       	adc	r24, r24
 6e2:	99 1f       	adc	r25, r25
 6e4:	1a 94       	dec	r1
 6e6:	69 f7       	brne	.-38     	; 0x6c2 <__udivmodsi4_loop>
 6e8:	60 95       	com	r22
 6ea:	70 95       	com	r23
 6ec:	80 95       	com	r24
 6ee:	90 95       	com	r25
 6f0:	9b 01       	movw	r18, r22
 6f2:	ac 01       	movw	r20, r24
 6f4:	bd 01       	movw	r22, r26
 6f6:	cf 01       	movw	r24, r30
 6f8:	08 95       	ret

000006fa <__umulhisi3>:
 6fa:	a2 9f       	mul	r26, r18
 6fc:	b0 01       	movw	r22, r0
 6fe:	b3 9f       	mul	r27, r19
 700:	c0 01       	movw	r24, r0
 702:	a3 9f       	mul	r26, r19
 704:	70 0d       	add	r23, r0
 706:	81 1d       	adc	r24, r1
 708:	11 24       	eor	r1, r1
 70a:	91 1d       	adc	r25, r1
 70c:	b2 9f       	mul	r27, r18
 70e:	70 0d       	add	r23, r0
 710:	81 1d       	adc	r24, r1
 712:	11 24       	eor	r1, r1
 714:	91 1d       	adc	r25, r1
 716:	08 95       	ret

00000718 <atoi>:
 718:	fc 01       	movw	r30, r24
 71a:	88 27       	eor	r24, r24
 71c:	99 27       	eor	r25, r25
 71e:	e8 94       	clt
 720:	21 91       	ld	r18, Z+
 722:	20 32       	cpi	r18, 0x20	; 32
 724:	e9 f3       	breq	.-6      	; 0x720 <atoi+0x8>
 726:	29 30       	cpi	r18, 0x09	; 9
 728:	10 f0       	brcs	.+4      	; 0x72e <atoi+0x16>
 72a:	2e 30       	cpi	r18, 0x0E	; 14
 72c:	c8 f3       	brcs	.-14     	; 0x720 <atoi+0x8>
 72e:	2b 32       	cpi	r18, 0x2B	; 43
 730:	41 f0       	breq	.+16     	; 0x742 <atoi+0x2a>
 732:	2d 32       	cpi	r18, 0x2D	; 45
 734:	39 f4       	brne	.+14     	; 0x744 <atoi+0x2c>
 736:	68 94       	set
 738:	04 c0       	rjmp	.+8      	; 0x742 <atoi+0x2a>
 73a:	0e 94 aa 03 	call	0x754	; 0x754 <__mulhi_const_10>
 73e:	82 0f       	add	r24, r18
 740:	91 1d       	adc	r25, r1
 742:	21 91       	ld	r18, Z+
 744:	20 53       	subi	r18, 0x30	; 48
 746:	2a 30       	cpi	r18, 0x0A	; 10
 748:	c0 f3       	brcs	.-16     	; 0x73a <atoi+0x22>
 74a:	1e f4       	brtc	.+6      	; 0x752 <atoi+0x3a>
 74c:	90 95       	com	r25
 74e:	81 95       	neg	r24
 750:	9f 4f       	sbci	r25, 0xFF	; 255
 752:	08 95       	ret

00000754 <__mulhi_const_10>:
 754:	7a e0       	ldi	r23, 0x0A	; 10
 756:	97 9f       	mul	r25, r23
 758:	90 2d       	mov	r25, r0
 75a:	87 9f       	mul	r24, r23
 75c:	80 2d       	mov	r24, r0
 75e:	91 0d       	add	r25, r1
 760:	11 24       	eor	r1, r1
 762:	08 95       	ret

00000764 <_exit>:
 764:	f8 94       	cli

00000766 <__stop_program>:
 766:	ff cf       	rjmp	.-2      	; 0x766 <__stop_program>
